target datalayout = "e-m:e-p270:32:32-p271:32:32-p272:64:64-i64:64-i128:128-f80:128-n8:16:32:64-S128"
target triple = "x86_64-unknown-linux-gnu"

%struct.QTailQLink = type { ptr, ptr }
%struct.BlockDriverState = type { i32, i8, i8, i8, i8, i8, ptr, ptr, ptr, %struct.anon, i8, [4096 x i8], [4096 x i8], [4096 x i8], [16 x i8], ptr, [4096 x i8], %struct.BlockLimits, i32, i32, i32, i32, [32 x i8], %union.anon.0, %union.anon.1, %union.anon.2, i32, [16 x %struct.anon.3], ptr, %struct.anon.4, ptr, ptr, %struct.anon.5, ptr, ptr, i32, ptr, i64, i64, %struct.QemuMutex, %struct.anon.6, %struct.Stat64, i32, i32, i32, i32, i32, i32, %struct.QemuMutex, %struct.anon.7, %struct.CoQueue, i8, i32, i8, %struct.CoMutex, ptr, ptr }
%struct.anon = type { ptr }
%struct.BlockLimits = type { i32, i64, i32, i64, i32, i32, i32, i64, i32, i64, i64, i32, i8, i32, i32, i32, i32, i32, i32, i32 }
%union.anon.0 = type { %struct.QTailQLink }
%union.anon.1 = type { %struct.QTailQLink }
%union.anon.2 = type { %struct.QTailQLink }
%struct.anon.3 = type { ptr }
%struct.anon.4 = type { ptr }
%struct.anon.5 = type { ptr }
%struct.anon.6 = type { ptr }
%struct.Stat64 = type { i64 }
%struct.QemuMutex = type { %union.pthread_mutex_t, i8 }
%union.pthread_mutex_t = type { %struct.__pthread_mutex_s }
%struct.__pthread_mutex_s = type { i32, i32, i32, i32, i32, i16, i16, %struct.__pthread_internal_list }
%struct.__pthread_internal_list = type { ptr, ptr }
%struct.anon.7 = type { ptr }
%struct.CoQueue = type { %struct.anon.8 }
%struct.anon.8 = type { ptr, ptr }
%struct.CoMutex = type { i32, ptr, %struct.anon.9, %struct.anon.9, i32, i32, ptr }
%struct.anon.9 = type { ptr }
%struct.BdrvChild = type { ptr, ptr, ptr, i32, ptr, i64, i64, i8, i8, %struct.anon.11, %struct.anon.12 }
%struct.anon.11 = type { ptr, ptr }
%struct.anon.12 = type { ptr, ptr }

@.str.6 = private unnamed_addr constant [22 x i8] c"qemu_in_main_thread()\00", align 1
@.str.7 = private unnamed_addr constant [25 x i8] c"../qemu/block/snapshot.c\00", align 1
@__PRETTY_FUNCTION__.bdrv_snapshot_fallback = private unnamed_addr constant [61 x i8] c"BlockDriverState *bdrv_snapshot_fallback(BlockDriverState *)\00", align 1
@__PRETTY_FUNCTION__.bdrv_snapshot_fallback_child = private unnamed_addr constant [60 x i8] c"BdrvChild *bdrv_snapshot_fallback_child(BlockDriverState *)\00", align 1

; Function Attrs: nounwind sspstrong uwtable
define internal ptr @child_bs(ptr noundef %child) #0 {
entry:
  %child.addr = alloca ptr, align 8
  store ptr %child, ptr %child.addr, align 8
  %0 = load ptr, ptr %child.addr, align 8
  %tobool = icmp ne ptr %0, null
  br i1 %tobool, label %cond.true, label %cond.false

cond.true:                                        ; preds = %entry
  %1 = load ptr, ptr %child.addr, align 8
  %bs = getelementptr inbounds %struct.BdrvChild, ptr %1, i32 0, i32 0
  %2 = load ptr, ptr %bs, align 8
  br label %cond.end

cond.false:                                       ; preds = %entry
  br label %cond.end

cond.end:                                         ; preds = %cond.false, %cond.true
  %cond = phi ptr [ %2, %cond.true ], [ null, %cond.false ]
  ret ptr %cond
}

; Function Attrs: nounwind sspstrong uwtable
define internal ptr @bdrv_snapshot_fallback_child(ptr noundef %bs) #0 {
entry:
  %retval = alloca ptr, align 8
  %bs.addr = alloca ptr, align 8
  %fallback = alloca ptr, align 8
  %child = alloca ptr, align 8
  store ptr %bs, ptr %bs.addr, align 8
  %0 = load ptr, ptr %bs.addr, align 8
  %call = call ptr @bdrv_primary_child(ptr noundef %0)
  store ptr %call, ptr %fallback, align 8
  br label %do.body

do.body:                                          ; preds = %entry
  %call1 = call zeroext i1 @qemu_in_main_thread()
  br i1 %call1, label %if.then, label %if.else

if.then:                                          ; preds = %do.body
  br label %if.end

if.else:                                          ; preds = %do.body
  call void @__assert_fail(ptr noundef @.str.6, ptr noundef @.str.7, i32 noundef 164, ptr noundef @__PRETTY_FUNCTION__.bdrv_snapshot_fallback_child) #6
  unreachable

if.end:                                           ; preds = %if.then
  br label %do.end

do.end:                                           ; preds = %if.end
  call void @assert_bdrv_graph_readable()
  %1 = load ptr, ptr %fallback, align 8
  %tobool = icmp ne ptr %1, null
  br i1 %tobool, label %if.end3, label %if.then2

if.then2:                                         ; preds = %do.end
  store ptr null, ptr %retval, align 8
  br label %return

if.end3:                                          ; preds = %do.end
  %2 = load ptr, ptr %bs.addr, align 8
  %children = getelementptr inbounds %struct.BlockDriverState, ptr %2, i32 0, i32 29
  %lh_first = getelementptr inbounds %struct.anon.4, ptr %children, i32 0, i32 0
  %3 = load ptr, ptr %lh_first, align 8
  store ptr %3, ptr %child, align 8
  br label %for.cond

for.cond:                                         ; preds = %for.inc, %if.end3
  %4 = load ptr, ptr %child, align 8
  %tobool4 = icmp ne ptr %4, null
  br i1 %tobool4, label %for.body, label %for.end

for.body:                                         ; preds = %for.cond
  %5 = load ptr, ptr %child, align 8
  %role = getelementptr inbounds %struct.BdrvChild, ptr %5, i32 0, i32 3
  %6 = load i32, ptr %role, align 8
  %and = and i32 %6, 7
  %tobool5 = icmp ne i32 %and, 0
  br i1 %tobool5, label %land.lhs.true, label %if.end7

land.lhs.true:                                    ; preds = %for.body
  %7 = load ptr, ptr %child, align 8
  %8 = load ptr, ptr %fallback, align 8
  %cmp = icmp ne ptr %7, %8
  br i1 %cmp, label %if.then6, label %if.end7

if.then6:                                         ; preds = %land.lhs.true
  store ptr null, ptr %retval, align 8
  br label %return

if.end7:                                          ; preds = %land.lhs.true, %for.body
  br label %for.inc

for.inc:                                          ; preds = %if.end7
  %9 = load ptr, ptr %child, align 8
  %next = getelementptr inbounds %struct.BdrvChild, ptr %9, i32 0, i32 9
  %le_next = getelementptr inbounds %struct.anon.11, ptr %next, i32 0, i32 0
  %10 = load ptr, ptr %le_next, align 8
  store ptr %10, ptr %child, align 8
  br label %for.cond, !llvm.loop !10

for.end:                                          ; preds = %for.cond
  %11 = load ptr, ptr %fallback, align 8
  store ptr %11, ptr %retval, align 8
  br label %return

return:                                           ; preds = %for.end, %if.then6, %if.then2
  %12 = load ptr, ptr %retval, align 8
  ret ptr %12
}

; Function Attrs: nounwind sspstrong uwtable
define internal ptr @bdrv_snapshot_fallback(ptr noundef %bs) #0 {
entry:
  %bs.addr = alloca ptr, align 8
  store ptr %bs, ptr %bs.addr, align 8
  br label %do.body

do.body:                                          ; preds = %entry
  %call = call zeroext i1 @qemu_in_main_thread()
  br i1 %call, label %if.then, label %if.else

if.then:                                          ; preds = %do.body
  br label %if.end

if.else:                                          ; preds = %do.body
  call void @__assert_fail(ptr noundef @.str.6, ptr noundef @.str.7, i32 noundef 192, ptr noundef @__PRETTY_FUNCTION__.bdrv_snapshot_fallback) #6
  unreachable

if.end:                                           ; preds = %if.then
  br label %do.end

do.end:                                           ; preds = %if.end
  %0 = load ptr, ptr %bs.addr, align 8
  %call1 = call ptr @bdrv_snapshot_fallback_child(ptr noundef %0)
  %call2 = call ptr @child_bs(ptr noundef %call1)
  ret ptr %call2
}