; Function Attrs: nounwind sspstrong uwtable
define internal fastcc ptr @bdrv_snapshot_fallback(ptr noundef %bs) unnamed_addr #0 {
entry:
  %call = tail call zeroext i1 @qemu_in_main_thread() #6
  br i1 %call, label %do.end, label %if.else

if.else:                                          ; preds = %entry
  tail call void @__assert_fail(ptr noundef nonnull @.str.6, ptr noundef nonnull @.str.7, i32 noundef 192, ptr noundef nonnull @__PRETTY_FUNCTION__.bdrv_snapshot_fallback) #7
  unreachable

do.end:                                           ; preds = %entry
  %call.i = tail call ptr @bdrv_primary_child(ptr noundef %bs) #6
  %call1.i = tail call zeroext i1 @qemu_in_main_thread() #6
  br i1 %call1.i, label %do.end.i, label %if.else.i

if.else.i:                                        ; preds = %do.end
  tail call void @__assert_fail(ptr noundef nonnull @.str.6, ptr noundef nonnull @.str.7, i32 noundef 164, ptr noundef nonnull @__PRETTY_FUNCTION__.bdrv_snapshot_fallback_child) #7
  unreachable

do.end.i:                                         ; preds = %do.end
  tail call void @assert_bdrv_graph_readable() #6
  %tobool.not.i = icmp eq ptr %call.i, null
  br i1 %tobool.not.i, label %child_bs.exit, label %if.end3.i

if.end3.i:                                        ; preds = %do.end.i
  %children.i = getelementptr inbounds nuw i8, ptr %bs, i64 16824
  %child.07.i = load ptr, ptr %children.i, align 8
  %tobool4.not8.i = icmp eq ptr %child.07.i, null
  br i1 %tobool4.not8.i, label %cond.true.i, label %for.body.i

for.cond.i:                                       ; preds = %for.body.i
  %next.i = getelementptr inbounds nuw i8, ptr %child.09.i, i64 64
  %child.0.i = load ptr, ptr %next.i, align 8
  %tobool4.not.i = icmp eq ptr %child.0.i, null
  br i1 %tobool4.not.i, label %cond.true.i, label %for.body.i, !llvm.loop !10

for.body.i:                                       ; preds = %if.end3.i, %for.cond.i
  %child.09.i = phi ptr [ %child.0.i, %for.cond.i ], [ %child.07.i, %if.end3.i ]
  %role.i = getelementptr inbounds nuw i8, ptr %child.09.i, i64 24
  %0 = load i32, ptr %role.i, align 8
  %and.i = and i32 %0, 7
  %tobool5.not.i = icmp eq i32 %and.i, 0
  %cmp.not.i = icmp eq ptr %child.09.i, %call.i
  %or.cond.i = select i1 %tobool5.not.i, i1 true, i1 %cmp.not.i
  br i1 %or.cond.i, label %for.cond.i, label %child_bs.exit

cond.true.i:                                      ; preds = %for.cond.i, %if.end3.i
  %1 = load ptr, ptr %call.i, align 8
  br label %child_bs.exit

child_bs.exit:                                    ; preds = %for.body.i, %do.end.i, %cond.true.i
  %cond.i = phi ptr [ %1, %cond.true.i ], [ null, %do.end.i ], [ null, %for.body.i ]
  ret ptr %cond.i
}